target datalayout = "e-m:e-p270:32:32-p271:32:32-p272:64:64-i64:64-i128:128-f80:128-n8:16:32:64-S128"
target triple = "x86_64-pc-linux-gnu"

%struct._object = type { %union.anon, ptr }
%union.anon = type { i64 }
%struct.anon = type { i32, i32 }
%struct._typeobject = type { %struct.PyVarObject, ptr, i64, i64, ptr, i64, ptr, ptr, ptr, ptr, ptr, ptr, ptr, ptr, ptr, ptr, ptr, ptr, ptr, i64, ptr, ptr, ptr, ptr, i64, ptr, ptr, ptr, ptr, ptr, ptr, ptr, ptr, ptr, i64, ptr, ptr, ptr, ptr, ptr, ptr, ptr, ptr, ptr, ptr, ptr, i32, ptr, ptr, i8, i16 }
%struct.PyVarObject = type { %struct._object, i64 }

@.str.20 = private unnamed_addr constant [34 x i8] c"../cpython/Modules/_testcapi/gc.c\00", align 1
@.str.22 = private unnamed_addr constant [21 x i8] c"Py_REFCNT(self) == 0\00", align 1
@__PRETTY_FUNCTION__.slot_tp_del = private unnamed_addr constant [29 x i8] c"void slot_tp_del(PyObject *)\00", align 1
@.str.23 = private unnamed_addr constant [11 x i8] c"__tp_del__\00", align 1
@.str.24 = private unnamed_addr constant [37 x i8] c"Exception ignored while deallocating\00", align 1
@.str.25 = private unnamed_addr constant [47 x i8] c"Exception ignored while calling deallocator %R\00", align 1
@.str.26 = private unnamed_addr constant [20 x i8] c"Py_REFCNT(self) > 0\00", align 1
@.str.27 = private unnamed_addr constant [60 x i8] c"!PyType_IS_GC(Py_TYPE(self)) || PyObject_GC_IsTracked(self)\00", align 1
@.str.28 = private unnamed_addr constant [12 x i8] c"refcnt >= 0\00", align 1
@.str.29 = private unnamed_addr constant [30 x i8] c"../cpython/Include/refcount.h\00", align 1
@__PRETTY_FUNCTION__.Py_SET_REFCNT = private unnamed_addr constant [43 x i8] c"void Py_SET_REFCNT(PyObject *, Py_ssize_t)\00", align 1

; Function Attrs: alwaysinline nounwind uwtable
define internal i32 @_Py_IsImmortal(ptr noundef %0) #3 {
  %2 = alloca ptr, align 8
  store ptr %0, ptr %2, align 8, !tbaa !3
  %3 = load ptr, ptr %2, align 8, !tbaa !3
  %4 = getelementptr inbounds nuw %struct._object, ptr %3, i32 0, i32 0
  %5 = getelementptr inbounds nuw %struct.anon, ptr %4, i32 0, i32 0
  %6 = load i32, ptr %5, align 8, !tbaa !10
  %7 = icmp slt i32 %6, 0
  %8 = zext i1 %7 to i32
  ret i32 %8
}

; Function Attrs: inlinehint nounwind uwtable
define internal i32 @PyType_HasFeature(ptr noundef %0, i64 noundef %1) #4 {
  %3 = alloca ptr, align 8
  %4 = alloca i64, align 8
  %5 = alloca i64, align 8
  store ptr %0, ptr %3, align 8, !tbaa !16
  store i64 %1, ptr %4, align 8, !tbaa !36
  call void @llvm.lifetime.start.p0(i64 8, ptr %5) #6
  %6 = load ptr, ptr %3, align 8, !tbaa !16
  %7 = getelementptr inbounds nuw %struct._typeobject, ptr %6, i32 0, i32 19
  %8 = load i64, ptr %7, align 8, !tbaa !18
  store i64 %8, ptr %5, align 8, !tbaa !36
  %9 = load i64, ptr %5, align 8, !tbaa !36
  %10 = load i64, ptr %4, align 8, !tbaa !36
  %11 = and i64 %9, %10
  %12 = icmp ne i64 %11, 0
  %13 = zext i1 %12 to i32
  call void @llvm.lifetime.end.p0(i64 8, ptr %5) #6
  ret i32 %13
}

; Function Attrs: alwaysinline nounwind uwtable
define internal void @Py_DECREF(ptr noundef %0) #3 {
  %2 = alloca ptr, align 8
  store ptr %0, ptr %2, align 8, !tbaa !3
  %3 = load ptr, ptr %2, align 8, !tbaa !3
  %4 = call i32 @_Py_IsImmortal(ptr noundef %3)
  %5 = icmp ne i32 %4, 0
  br i1 %5, label %6, label %7

6:                                                ; preds = %1
  br label %16

7:                                                ; preds = %1
  %8 = load ptr, ptr %2, align 8, !tbaa !3
  %9 = getelementptr inbounds nuw %struct._object, ptr %8, i32 0, i32 0
  %10 = getelementptr inbounds nuw %struct.anon, ptr %9, i32 0, i32 0
  %11 = load i32, ptr %10, align 8, !tbaa !10
  %12 = add i32 %11, -1
  store i32 %12, ptr %10, align 8, !tbaa !10
  %13 = icmp eq i32 %12, 0
  br i1 %13, label %14, label %16

14:                                               ; preds = %7
  %15 = load ptr, ptr %2, align 8, !tbaa !3
  call void @_Py_Dealloc(ptr noundef %15)
  br label %16

16:                                               ; preds = %6, %14, %7
  ret void
}

; Function Attrs: inlinehint nounwind uwtable
define internal ptr @_Py_TYPE(ptr noundef %0) #4 {
  %2 = alloca ptr, align 8
  store ptr %0, ptr %2, align 8, !tbaa !3
  %3 = load ptr, ptr %2, align 8, !tbaa !3
  %4 = getelementptr inbounds nuw %struct._object, ptr %3, i32 0, i32 1
  %5 = load ptr, ptr %4, align 8, !tbaa !37
  ret ptr %5
}

; Function Attrs: inlinehint nounwind uwtable
define internal void @Py_SET_REFCNT(ptr noundef %0, i64 noundef %1) #4 {
  %3 = alloca ptr, align 8
  %4 = alloca i64, align 8
  store ptr %0, ptr %3, align 8, !tbaa !3
  store i64 %1, ptr %4, align 8, !tbaa !36
  %5 = load i64, ptr %4, align 8, !tbaa !36
  %6 = icmp sge i64 %5, 0
  br i1 %6, label %7, label %8

7:                                                ; preds = %2
  br label %10

8:                                                ; preds = %2
  call void @__assert_fail(ptr noundef @.str.28, ptr noundef @.str.29, i32 noundef 146, ptr noundef @__PRETTY_FUNCTION__.Py_SET_REFCNT) #7
  unreachable

9:                                                ; No predecessors!
  br label %10

10:                                               ; preds = %9, %7
  %11 = load ptr, ptr %3, align 8, !tbaa !3
  %12 = call i32 @_Py_IsImmortal(ptr noundef %11)
  %13 = icmp ne i32 %12, 0
  br i1 %13, label %14, label %15

14:                                               ; preds = %10
  br label %21

15:                                               ; preds = %10
  %16 = load i64, ptr %4, align 8, !tbaa !36
  %17 = trunc i64 %16 to i32
  %18 = load ptr, ptr %3, align 8, !tbaa !3
  %19 = getelementptr inbounds nuw %struct._object, ptr %18, i32 0, i32 0
  %20 = getelementptr inbounds nuw %struct.anon, ptr %19, i32 0, i32 0
  store i32 %17, ptr %20, align 8, !tbaa !10
  br label %21

21:                                               ; preds = %15, %14
  ret void
}

; Function Attrs: inlinehint nounwind uwtable
define internal i64 @_Py_REFCNT(ptr noundef %0) #4 {
  %2 = alloca ptr, align 8
  store ptr %0, ptr %2, align 8, !tbaa !3
  %3 = load ptr, ptr %2, align 8, !tbaa !3
  %4 = getelementptr inbounds nuw %struct._object, ptr %3, i32 0, i32 0
  %5 = getelementptr inbounds nuw %struct.anon, ptr %4, i32 0, i32 0
  %6 = load i32, ptr %5, align 8, !tbaa !10
  %7 = zext i32 %6 to i64
  ret i64 %7
}

; Function Attrs: nounwind uwtable
define internal void @slot_tp_del(ptr noundef %0) #0 {
  %2 = alloca ptr, align 8
  %3 = alloca ptr, align 8
  %4 = alloca ptr, align 8
  %5 = alloca ptr, align 8
  %6 = alloca ptr, align 8
  %7 = alloca i32, align 4
  store ptr %0, ptr %2, align 8, !tbaa !3
  call void @llvm.lifetime.start.p0(i64 8, ptr %3) #6
  call void @llvm.lifetime.start.p0(i64 8, ptr %4) #6
  %8 = load ptr, ptr %2, align 8, !tbaa !3
  %9 = call i64 @_Py_REFCNT(ptr noundef %8)
  %10 = icmp eq i64 %9, 0
  br i1 %10, label %11, label %12

11:                                               ; preds = %1
  br label %14

12:                                               ; preds = %1
  call void @__assert_fail(ptr noundef @.str.22, ptr noundef @.str.20, i32 noundef 89, ptr noundef @__PRETTY_FUNCTION__.slot_tp_del) #7
  unreachable

13:                                               ; No predecessors!
  br label %14

14:                                               ; preds = %13, %11
  %15 = load ptr, ptr %2, align 8, !tbaa !3
  call void @Py_SET_REFCNT(ptr noundef %15, i64 noundef 1)
  call void @llvm.lifetime.start.p0(i64 8, ptr %5) #6
  %16 = call ptr @PyErr_GetRaisedException()
  store ptr %16, ptr %5, align 8, !tbaa !3
  call void @llvm.lifetime.start.p0(i64 8, ptr %6) #6
  %17 = call ptr @PyUnicode_InternFromString(ptr noundef @.str.23)
  store ptr %17, ptr %6, align 8, !tbaa !3
  %18 = load ptr, ptr %6, align 8, !tbaa !3
  %19 = icmp eq ptr %18, null
  br i1 %19, label %20, label %22

20:                                               ; preds = %14
  call void (ptr, ...) @PyErr_FormatUnraisable(ptr noundef @.str.24)
  %21 = load ptr, ptr %5, align 8, !tbaa !3
  call void @PyErr_SetRaisedException(ptr noundef %21)
  store i32 1, ptr %7, align 4
  br label %73

22:                                               ; preds = %14
  %23 = load ptr, ptr %2, align 8, !tbaa !3
  %24 = call ptr @_Py_TYPE(ptr noundef %23)
  %25 = load ptr, ptr %6, align 8, !tbaa !3
  %26 = call ptr @_PyType_LookupRef(ptr noundef %24, ptr noundef %25)
  store ptr %26, ptr %3, align 8, !tbaa !3
  %27 = load ptr, ptr %6, align 8, !tbaa !3
  call void @Py_DECREF(ptr noundef %27)
  %28 = load ptr, ptr %3, align 8, !tbaa !3
  %29 = icmp ne ptr %28, null
  br i1 %29, label %30, label %42

30:                                               ; preds = %22
  %31 = load ptr, ptr %3, align 8, !tbaa !3
  %32 = load ptr, ptr %2, align 8, !tbaa !3
  %33 = call ptr @PyObject_CallOneArg(ptr noundef %31, ptr noundef %32)
  store ptr %33, ptr %4, align 8, !tbaa !3
  %34 = load ptr, ptr %3, align 8, !tbaa !3
  call void @Py_DECREF(ptr noundef %34)
  %35 = load ptr, ptr %4, align 8, !tbaa !3
  %36 = icmp eq ptr %35, null
  br i1 %36, label %37, label %39

37:                                               ; preds = %30
  %38 = load ptr, ptr %3, align 8, !tbaa !3
  call void (ptr, ...) @PyErr_FormatUnraisable(ptr noundef @.str.25, ptr noundef %38)
  br label %41

39:                                               ; preds = %30
  %40 = load ptr, ptr %4, align 8, !tbaa !3
  call void @Py_DECREF(ptr noundef %40)
  br label %41

41:                                               ; preds = %39, %37
  br label %42

42:                                               ; preds = %41, %22
  %43 = load ptr, ptr %5, align 8, !tbaa !3
  call void @PyErr_SetRaisedException(ptr noundef %43)
  %44 = load ptr, ptr %2, align 8, !tbaa !3
  %45 = call i64 @_Py_REFCNT(ptr noundef %44)
  %46 = icmp sgt i64 %45, 0
  br i1 %46, label %47, label %48

47:                                               ; preds = %42
  br label %50

48:                                               ; preds = %42
  call void @__assert_fail(ptr noundef @.str.26, ptr noundef @.str.20, i32 noundef 122, ptr noundef @__PRETTY_FUNCTION__.slot_tp_del) #7
  unreachable

49:                                               ; No predecessors!
  br label %50

50:                                               ; preds = %49, %47
  %51 = load ptr, ptr %2, align 8, !tbaa !3
  %52 = load ptr, ptr %2, align 8, !tbaa !3
  %53 = call i64 @_Py_REFCNT(ptr noundef %52)
  %54 = sub i64 %53, 1
  call void @Py_SET_REFCNT(ptr noundef %51, i64 noundef %54)
  %55 = load ptr, ptr %2, align 8, !tbaa !3
  %56 = call i64 @_Py_REFCNT(ptr noundef %55)
  %57 = icmp eq i64 %56, 0
  br i1 %57, label %58, label %59

58:                                               ; preds = %50
  store i32 1, ptr %7, align 4
  br label %73

59:                                               ; preds = %50
  %60 = load ptr, ptr %2, align 8, !tbaa !3
  call void @_Py_ResurrectReference(ptr noundef %60)
  %61 = load ptr, ptr %2, align 8, !tbaa !3
  %62 = call ptr @_Py_TYPE(ptr noundef %61)
  %63 = call i32 @PyType_HasFeature(ptr noundef %62, i64 noundef 16384)
  %64 = icmp ne i32 %63, 0
  br i1 %64, label %65, label %69

65:                                               ; preds = %59
  %66 = load ptr, ptr %2, align 8, !tbaa !3
  %67 = call i32 @PyObject_GC_IsTracked(ptr noundef %66)
  %68 = icmp ne i32 %67, 0
  br i1 %68, label %69, label %70

69:                                               ; preds = %65, %59
  br label %72

70:                                               ; preds = %65
  call void @__assert_fail(ptr noundef @.str.27, ptr noundef @.str.20, i32 noundef 135, ptr noundef @__PRETTY_FUNCTION__.slot_tp_del) #7
  unreachable

71:                                               ; No predecessors!
  br label %72

72:                                               ; preds = %71, %69
  store i32 0, ptr %7, align 4
  br label %73

73:                                               ; preds = %72, %58, %20
  call void @llvm.lifetime.end.p0(i64 8, ptr %6) #6
  call void @llvm.lifetime.end.p0(i64 8, ptr %5) #6
  call void @llvm.lifetime.end.p0(i64 8, ptr %4) #6
  call void @llvm.lifetime.end.p0(i64 8, ptr %3) #6
  %74 = load i32, ptr %7, align 4
  switch i32 %74, label %76 [
    i32 0, label %75
    i32 1, label %75
  ]

75:                                               ; preds = %73, %73
  ret void

76:                                               ; preds = %73
  unreachable
}