; Function Attrs: nounwind uwtable
define internal void @slot_tp_del(ptr noundef %0) #0 {
  %.val35 = load i32, ptr %0, align 8, !tbaa !3
  %2 = icmp eq i32 %.val35, 0
  br i1 %2, label %Py_SET_REFCNT.exit, label %3

3:                                                ; preds = %1
  tail call void @__assert_fail(ptr noundef nonnull @.str.22, ptr noundef nonnull @.str.20, i32 noundef 89, ptr noundef nonnull @__PRETTY_FUNCTION__.slot_tp_del) #9
  unreachable

Py_SET_REFCNT.exit:                               ; preds = %1
  store i32 1, ptr %0, align 8, !tbaa !3
  %4 = tail call ptr @PyErr_GetRaisedException() #8
  %5 = tail call ptr @PyUnicode_InternFromString(ptr noundef nonnull @.str.23) #8
  %6 = icmp eq ptr %5, null
  br i1 %6, label %7, label %8

7:                                                ; preds = %Py_SET_REFCNT.exit
  tail call void (ptr, ...) @PyErr_FormatUnraisable(ptr noundef nonnull @.str.24) #8
  tail call void @PyErr_SetRaisedException(ptr noundef %4) #8
  br label %40

8:                                                ; preds = %Py_SET_REFCNT.exit
  %9 = getelementptr i8, ptr %0, i64 8
  %.val33 = load ptr, ptr %9, align 8, !tbaa !14
  %10 = tail call ptr @_PyType_LookupRef(ptr noundef %.val33, ptr noundef nonnull %5) #8
  %11 = load i32, ptr %5, align 8, !tbaa !3
  %.not.i29 = icmp sgt i32 %11, -1
  br i1 %.not.i29, label %12, label %Py_DECREF.exit30

12:                                               ; preds = %8
  %13 = add nsw i32 %11, -1
  store i32 %13, ptr %5, align 8, !tbaa !3
  %14 = icmp eq i32 %13, 0
  br i1 %14, label %15, label %Py_DECREF.exit30

15:                                               ; preds = %12
  tail call void @_Py_Dealloc(ptr noundef nonnull %5) #8
  br label %Py_DECREF.exit30

Py_DECREF.exit30:                                 ; preds = %8, %12, %15
  %.not = icmp eq ptr %10, null
  br i1 %.not, label %Py_DECREF.exit, label %16

16:                                               ; preds = %Py_DECREF.exit30
  %17 = tail call ptr @PyObject_CallOneArg(ptr noundef nonnull %10, ptr noundef nonnull %0) #8
  %18 = load i32, ptr %10, align 8, !tbaa !3
  %.not.i27 = icmp sgt i32 %18, -1
  br i1 %.not.i27, label %19, label %Py_DECREF.exit28

19:                                               ; preds = %16
  %20 = add nsw i32 %18, -1
  store i32 %20, ptr %10, align 8, !tbaa !3
  %21 = icmp eq i32 %20, 0
  br i1 %21, label %22, label %Py_DECREF.exit28

22:                                               ; preds = %19
  tail call void @_Py_Dealloc(ptr noundef nonnull %10) #8
  br label %Py_DECREF.exit28

Py_DECREF.exit28:                                 ; preds = %16, %19, %22
  %23 = icmp eq ptr %17, null
  br i1 %23, label %24, label %25

24:                                               ; preds = %Py_DECREF.exit28
  tail call void (ptr, ...) @PyErr_FormatUnraisable(ptr noundef nonnull @.str.25, ptr noundef nonnull %10) #8
  br label %Py_DECREF.exit

25:                                               ; preds = %Py_DECREF.exit28
  %26 = load i32, ptr %17, align 8, !tbaa !3
  %.not.i = icmp sgt i32 %26, -1
  br i1 %.not.i, label %27, label %Py_DECREF.exit

27:                                               ; preds = %25
  %28 = add nsw i32 %26, -1
  store i32 %28, ptr %17, align 8, !tbaa !3
  %29 = icmp eq i32 %28, 0
  br i1 %29, label %30, label %Py_DECREF.exit

30:                                               ; preds = %27
  tail call void @_Py_Dealloc(ptr noundef nonnull %17) #8
  br label %Py_DECREF.exit

Py_DECREF.exit:                                   ; preds = %30, %27, %25, %24, %Py_DECREF.exit30
  tail call void @PyErr_SetRaisedException(ptr noundef %4) #8
  %.val36 = load i32, ptr %0, align 8, !tbaa !3
  %.not24 = icmp eq i32 %.val36, 0
  br i1 %.not24, label %31, label %32

31:                                               ; preds = %Py_DECREF.exit
  tail call void @__assert_fail(ptr noundef nonnull @.str.26, ptr noundef nonnull @.str.20, i32 noundef 122, ptr noundef nonnull @__PRETTY_FUNCTION__.slot_tp_del) #9
  unreachable

32:                                               ; preds = %Py_DECREF.exit
  %.not.i40 = icmp sgt i32 %.val36, -1
  br i1 %.not.i40, label %Py_SET_REFCNT.exit41, label %Py_SET_REFCNT.exit41.thread

Py_SET_REFCNT.exit41:                             ; preds = %32
  %33 = add nsw i32 %.val36, -1
  store i32 %33, ptr %0, align 8, !tbaa !3
  %34 = icmp eq i32 %33, 0
  br i1 %34, label %40, label %Py_SET_REFCNT.exit41.thread

Py_SET_REFCNT.exit41.thread:                      ; preds = %32, %Py_SET_REFCNT.exit41
  tail call void @_Py_ResurrectReference(ptr noundef nonnull %0) #8
  %.val = load ptr, ptr %9, align 8, !tbaa !14
  %35 = getelementptr i8, ptr %.val, i64 168
  %.val34 = load i64, ptr %35, align 8, !tbaa !17
  %36 = and i64 %.val34, 16384
  %.not25 = icmp eq i64 %36, 0
  br i1 %.not25, label %40, label %37

37:                                               ; preds = %Py_SET_REFCNT.exit41.thread
  %38 = tail call i32 @PyObject_GC_IsTracked(ptr noundef nonnull %0) #8
  %.not26 = icmp eq i32 %38, 0
  br i1 %.not26, label %39, label %40

39:                                               ; preds = %37
  tail call void @__assert_fail(ptr noundef nonnull @.str.27, ptr noundef nonnull @.str.20, i32 noundef 135, ptr noundef nonnull @__PRETTY_FUNCTION__.slot_tp_del) #9
  unreachable

40:                                               ; preds = %37, %Py_SET_REFCNT.exit41.thread, %Py_SET_REFCNT.exit41, %7
  ret void
}